target datalayout = "e-m:e-p270:32:32-p271:32:32-p272:64:64-i64:64-i128:128-f80:128-n8:16:32:64-S128"
target triple = "x86_64-pc-linux-gnu"

%class.JfrCheckpointWriter = type <{ %class.EventWriterHost.base, [7 x i8], %class.TimeInstant, i64, i32, i32, i8, [7 x i8] }>
%class.EventWriterHost.base = type { %class.WriterHost.base }
%class.WriterHost.base = type <{ %class.AcquireReleaseMemoryWriterHost, i8 }>
%class.AcquireReleaseMemoryWriterHost = type { %class.MemoryWriterHost }
%class.MemoryWriterHost = type { %class.StorageHost }
%class.StorageHost = type { %class.Position, %class.Adapter }
%class.Position = type { ptr, ptr, ptr }
%class.Adapter = type { ptr, ptr }
%class.TimeInstant = type { %class.CounterRepresentation }
%class.CounterRepresentation = type { %class.Representation }
%class.Representation = type { i64 }
%struct.JfrCheckpointContext = type { i64, i32 }

; Function Attrs: mustprogress nounwind uwtable
define linkonce_odr hidden void @_ZN8PositionI8StackObjE15set_current_posEPKh(ptr noundef nonnull align 8 dereferenceable(24) %0, ptr noundef %1) #1 comdat align 2 {
  %3 = alloca ptr, align 8
  %4 = alloca ptr, align 8
  store ptr %0, ptr %3, align 8
  store ptr %1, ptr %4, align 8
  %5 = load ptr, ptr %3, align 8
  %6 = load ptr, ptr %4, align 8
  %7 = getelementptr inbounds %class.Position, ptr %5, i32 0, i32 1
  store ptr %6, ptr %7, align 8
  ret void
}

; Function Attrs: mustprogress nounwind uwtable
define linkonce_odr hidden noundef i64 @_ZNK21CounterRepresentationI33FastUnorderedElapsedCounterSourceE5valueEv(ptr noundef nonnull align 8 dereferenceable(8) %0) #1 comdat align 2 {
  %2 = alloca ptr, align 8
  store ptr %0, ptr %2, align 8
  %3 = load ptr, ptr %2, align 8
  %4 = getelementptr inbounds %class.Representation, ptr %3, i32 0, i32 0
  %5 = load i64, ptr %4, align 8
  ret i64 %5
}

; Function Attrs: mustprogress nounwind uwtable
define linkonce_odr hidden noundef ptr @_ZNK8PositionI8StackObjE7end_posEv(ptr noundef nonnull align 8 dereferenceable(24) %0) #1 comdat align 2 {
  %2 = alloca ptr, align 8
  store ptr %0, ptr %2, align 8
  %3 = load ptr, ptr %2, align 8
  %4 = getelementptr inbounds %class.Position, ptr %3, i32 0, i32 2
  %5 = load ptr, ptr %4, align 8
  ret ptr %5
}

; Function Attrs: mustprogress nounwind uwtable
define linkonce_odr hidden void @_ZN11StorageHostI7AdapterI18JfrCheckpointFlushE8StackObjE4seekEl(ptr noundef nonnull align 8 dereferenceable(40) %0, i64 noundef %1) #1 comdat align 2 {
  %3 = alloca ptr, align 8
  %4 = alloca i64, align 8
  store ptr %0, ptr %3, align 8
  store i64 %1, ptr %4, align 8
  %5 = load ptr, ptr %3, align 8
  %6 = call noundef zeroext i1 @_ZNK11StorageHostI7AdapterI18JfrCheckpointFlushE8StackObjE8is_validEv(ptr noundef nonnull align 8 dereferenceable(40) %5)
  br i1 %6, label %7, label %11

7:                                                ; preds = %2
  %8 = call noundef ptr @_ZNK8PositionI8StackObjE9start_posEv(ptr noundef nonnull align 8 dereferenceable(24) %5)
  %9 = load i64, ptr %4, align 8
  %10 = getelementptr inbounds i8, ptr %8, i64 %9
  call void @_ZN8PositionI8StackObjE15set_current_posEPKh(ptr noundef nonnull align 8 dereferenceable(24) %5, ptr noundef %10)
  br label %11

11:                                               ; preds = %7, %2
  ret void
}

; Function Attrs: mustprogress nounwind uwtable
define hidden noundef i32 @_ZNK19JfrCheckpointWriter5countEv(ptr noundef nonnull align 8 dereferenceable(73) %0) #1 align 2 {
  %2 = alloca ptr, align 8
  store ptr %0, ptr %2, align 8
  %3 = load ptr, ptr %2, align 8
  %4 = getelementptr inbounds %class.JfrCheckpointWriter, ptr %3, i32 0, i32 4
  %5 = load i32, ptr %4, align 8
  ret i32 %5
}

; Function Attrs: mustprogress nounwind uwtable
define linkonce_odr hidden noundef i64 @_ZN21CounterRepresentationI33FastUnorderedElapsedCounterSourceEcvlEv(ptr noundef nonnull align 8 dereferenceable(8) %0) #1 comdat align 2 {
  %2 = alloca ptr, align 8
  store ptr %0, ptr %2, align 8
  %3 = load ptr, ptr %2, align 8
  %4 = call noundef i64 @_ZNK21CounterRepresentationI33FastUnorderedElapsedCounterSourceE5valueEv(ptr noundef nonnull align 8 dereferenceable(8) %3)
  ret i64 %4
}

; Function Attrs: mustprogress nounwind uwtable
define linkonce_odr hidden noundef i64 @_ZNK8PositionI8StackObjE11used_offsetEv(ptr noundef nonnull align 8 dereferenceable(24) %0) #1 comdat align 2 {
  %2 = alloca ptr, align 8
  store ptr %0, ptr %2, align 8
  %3 = load ptr, ptr %2, align 8
  %4 = getelementptr inbounds %class.Position, ptr %3, i32 0, i32 1
  %5 = load ptr, ptr %4, align 8
  %6 = getelementptr inbounds %class.Position, ptr %3, i32 0, i32 0
  %7 = load ptr, ptr %6, align 8
  %8 = ptrtoint ptr %5 to i64
  %9 = ptrtoint ptr %7 to i64
  %10 = sub i64 %8, %9
  ret i64 %10
}

; Function Attrs: mustprogress nounwind uwtable
define linkonce_odr hidden noundef i64 @_ZNK8PositionI8StackObjE9used_sizeEv(ptr noundef nonnull align 8 dereferenceable(24) %0) #1 comdat align 2 {
  %2 = alloca ptr, align 8
  store ptr %0, ptr %2, align 8
  %3 = load ptr, ptr %2, align 8
  %4 = call noundef i64 @_ZNK8PositionI8StackObjE11used_offsetEv(ptr noundef nonnull align 8 dereferenceable(24) %3)
  ret i64 %4
}

; Function Attrs: mustprogress nounwind uwtable
define linkonce_odr hidden noundef ptr @_ZN8PositionI8StackObjE11current_posEv(ptr noundef nonnull align 8 dereferenceable(24) %0) #1 comdat align 2 {
  %2 = alloca ptr, align 8
  store ptr %0, ptr %2, align 8
  %3 = load ptr, ptr %2, align 8
  %4 = getelementptr inbounds %class.Position, ptr %3, i32 0, i32 1
  %5 = load ptr, ptr %4, align 8
  ret ptr %5
}

; Function Attrs: mustprogress nounwind uwtable
define linkonce_odr hidden noundef ptr @_ZNK8PositionI8StackObjE9start_posEv(ptr noundef nonnull align 8 dereferenceable(24) %0) #1 comdat align 2 {
  %2 = alloca ptr, align 8
  store ptr %0, ptr %2, align 8
  %3 = load ptr, ptr %2, align 8
  %4 = getelementptr inbounds %class.Position, ptr %3, i32 0, i32 0
  %5 = load ptr, ptr %4, align 8
  ret ptr %5
}

; Function Attrs: mustprogress nounwind uwtable
define linkonce_odr hidden noundef zeroext i1 @_ZNK11StorageHostI7AdapterI18JfrCheckpointFlushE8StackObjE8is_validEv(ptr noundef nonnull align 8 dereferenceable(40) %0) #1 comdat align 2 {
  %2 = alloca ptr, align 8
  store ptr %0, ptr %2, align 8
  %3 = load ptr, ptr %2, align 8
  %4 = call noundef ptr @_ZNK8PositionI8StackObjE7end_posEv(ptr noundef nonnull align 8 dereferenceable(24) %3)
  %5 = icmp ne ptr %4, null
  ret i1 %5
}

; Function Attrs: mustprogress nounwind uwtable
define hidden noundef ptr @_ZN19JfrCheckpointWriter12session_dataEPmbPK20JfrCheckpointContext(ptr noundef nonnull align 8 dereferenceable(73) %0, ptr noundef %1, i1 noundef zeroext %2, ptr noundef %3) #1 align 2 {
  %5 = alloca ptr, align 8
  %6 = alloca ptr, align 8
  %7 = alloca ptr, align 8
  %8 = alloca i8, align 1
  %9 = alloca ptr, align 8
  %10 = alloca ptr, align 8
  store ptr %0, ptr %6, align 8
  store ptr %1, ptr %7, align 8
  %11 = zext i1 %2 to i8
  store i8 %11, ptr %8, align 1
  store ptr %3, ptr %9, align 8
  %12 = load ptr, ptr %6, align 8
  %13 = call noundef zeroext i1 @_ZNK11StorageHostI7AdapterI18JfrCheckpointFlushE8StackObjE8is_validEv(ptr noundef nonnull align 8 dereferenceable(40) %12)
  br i1 %13, label %16, label %14

14:                                               ; preds = %4
  %15 = load ptr, ptr %7, align 8
  store i64 0, ptr %15, align 8
  store ptr null, ptr %5, align 8
  br label %55

16:                                               ; preds = %4
  %17 = load ptr, ptr %9, align 8
  %18 = icmp ne ptr %17, null
  br i1 %18, label %19, label %32

19:                                               ; preds = %16
  %20 = call noundef ptr @_ZNK8PositionI8StackObjE9start_posEv(ptr noundef nonnull align 8 dereferenceable(24) %12)
  %21 = load ptr, ptr %9, align 8
  %22 = getelementptr inbounds %struct.JfrCheckpointContext, ptr %21, i32 0, i32 0
  %23 = load i64, ptr %22, align 8
  %24 = getelementptr inbounds i8, ptr %20, i64 %23
  store ptr %24, ptr %10, align 8
  %25 = call noundef ptr @_ZN8PositionI8StackObjE11current_posEv(ptr noundef nonnull align 8 dereferenceable(24) %12)
  %26 = load ptr, ptr %10, align 8
  %27 = ptrtoint ptr %25 to i64
  %28 = ptrtoint ptr %26 to i64
  %29 = sub i64 %27, %28
  %30 = load ptr, ptr %7, align 8
  store i64 %29, ptr %30, align 8
  %31 = load ptr, ptr %10, align 8
  store ptr %31, ptr %5, align 8
  br label %55

32:                                               ; preds = %16
  %33 = call noundef i64 @_ZNK8PositionI8StackObjE9used_sizeEv(ptr noundef nonnull align 8 dereferenceable(24) %12)
  %34 = load ptr, ptr %7, align 8
  store i64 %33, ptr %34, align 8
  %35 = getelementptr inbounds %class.JfrCheckpointWriter, ptr %12, i32 0, i32 6
  %36 = load i8, ptr %35, align 8
  %37 = trunc i8 %36 to i1
  br i1 %37, label %38, label %47

38:                                               ; preds = %32
  %39 = call noundef ptr @_ZNK8PositionI8StackObjE9start_posEv(ptr noundef nonnull align 8 dereferenceable(24) %12)
  %40 = call noundef i64 @_ZNK8PositionI8StackObjE11used_offsetEv(ptr noundef nonnull align 8 dereferenceable(24) %12)
  %41 = getelementptr inbounds %class.JfrCheckpointWriter, ptr %12, i32 0, i32 2
  %42 = call noundef i64 @_ZN21CounterRepresentationI33FastUnorderedElapsedCounterSourceEcvlEv(ptr noundef nonnull align 8 dereferenceable(8) %41)
  %43 = getelementptr inbounds %class.JfrCheckpointWriter, ptr %12, i32 0, i32 5
  %44 = load i32, ptr %43, align 4
  %45 = call noundef i32 @_ZNK19JfrCheckpointWriter5countEv(ptr noundef nonnull align 8 dereferenceable(73) %12)
  call void @_ZL23write_checkpoint_headerPhlljj(ptr noundef %39, i64 noundef %40, i64 noundef %42, i32 noundef %44, i32 noundef %45)
  %46 = getelementptr inbounds %class.JfrCheckpointWriter, ptr %12, i32 0, i32 6
  store i8 0, ptr %46, align 8
  br label %47

47:                                               ; preds = %38, %32
  %48 = load i8, ptr %8, align 1
  %49 = trunc i8 %48 to i1
  br i1 %49, label %50, label %53

50:                                               ; preds = %47
  %51 = getelementptr inbounds %class.JfrCheckpointWriter, ptr %12, i32 0, i32 3
  %52 = load i64, ptr %51, align 8
  call void @_ZN11StorageHostI7AdapterI18JfrCheckpointFlushE8StackObjE4seekEl(ptr noundef nonnull align 8 dereferenceable(40) %12, i64 noundef %52)
  br label %53

53:                                               ; preds = %50, %47
  %54 = call noundef ptr @_ZNK8PositionI8StackObjE9start_posEv(ptr noundef nonnull align 8 dereferenceable(24) %12)
  store ptr %54, ptr %5, align 8
  br label %55

55:                                               ; preds = %53, %19, %14
  %56 = load ptr, ptr %5, align 8
  ret ptr %56
}