; Function Attrs: mustprogress nounwind uwtable
define hidden noundef ptr @_ZN19JfrCheckpointWriter12session_dataEPmbPK20JfrCheckpointContext(ptr nocapture noundef nonnull align 8 dereferenceable(73) %0, ptr nocapture noundef writeonly %1, i1 noundef zeroext %2, ptr noundef readonly %3) local_unnamed_addr #0 align 2 {
  %5 = getelementptr inbounds i8, ptr %0, i64 16
  %6 = load ptr, ptr %5, align 8
  %.not10 = icmp eq ptr %6, null
  br i1 %.not10, label %7, label %8

7:                                                ; preds = %4
  store i64 0, ptr %1, align 8
  br label %_ZN11StorageHostI7AdapterI18JfrCheckpointFlushE8StackObjE4seekEl.exit

8:                                                ; preds = %4
  %.not = icmp eq ptr %3, null
  br i1 %.not, label %18, label %9

9:                                                ; preds = %8
  %10 = load ptr, ptr %0, align 8
  %11 = load i64, ptr %3, align 8
  %12 = getelementptr inbounds i8, ptr %10, i64 %11
  %13 = getelementptr inbounds i8, ptr %0, i64 8
  %14 = load ptr, ptr %13, align 8
  %15 = ptrtoint ptr %14 to i64
  %16 = ptrtoint ptr %12 to i64
  %17 = sub i64 %15, %16
  store i64 %17, ptr %1, align 8
  br label %_ZN11StorageHostI7AdapterI18JfrCheckpointFlushE8StackObjE4seekEl.exit

18:                                               ; preds = %8
  %19 = getelementptr inbounds i8, ptr %0, i64 8
  %20 = load ptr, ptr %19, align 8
  %21 = load ptr, ptr %0, align 8
  %22 = ptrtoint ptr %20 to i64
  %23 = ptrtoint ptr %21 to i64
  %24 = sub i64 %22, %23
  store i64 %24, ptr %1, align 8
  %25 = getelementptr inbounds i8, ptr %0, i64 72
  %26 = load i8, ptr %25, align 8
  %27 = trunc i8 %26 to i1
  br i1 %27, label %28, label %40

28:                                               ; preds = %18
  %29 = load ptr, ptr %0, align 8
  %30 = load ptr, ptr %19, align 8
  %31 = ptrtoint ptr %30 to i64
  %32 = ptrtoint ptr %29 to i64
  %33 = sub i64 %31, %32
  %34 = getelementptr inbounds i8, ptr %0, i64 48
  %35 = load i64, ptr %34, align 8
  %36 = getelementptr inbounds i8, ptr %0, i64 68
  %37 = load i32, ptr %36, align 4
  %38 = getelementptr inbounds i8, ptr %0, i64 64
  %39 = load i32, ptr %38, align 8
  tail call fastcc void @_ZL23write_checkpoint_headerPhlljj(ptr noundef %29, i64 noundef %33, i64 noundef %35, i32 noundef %37, i32 noundef %39)
  store i8 0, ptr %25, align 8
  br label %40

40:                                               ; preds = %28, %18
  %41 = load ptr, ptr %5, align 8
  %.not.i = icmp ne ptr %41, null
  %or.cond.not = select i1 %2, i1 %.not.i, i1 false
  %.pre = load ptr, ptr %0, align 8
  br i1 %or.cond.not, label %42, label %_ZN11StorageHostI7AdapterI18JfrCheckpointFlushE8StackObjE4seekEl.exit

42:                                               ; preds = %40
  %43 = getelementptr inbounds i8, ptr %0, i64 56
  %44 = load i64, ptr %43, align 8
  %45 = getelementptr inbounds i8, ptr %.pre, i64 %44
  store ptr %45, ptr %19, align 8
  br label %_ZN11StorageHostI7AdapterI18JfrCheckpointFlushE8StackObjE4seekEl.exit

_ZN11StorageHostI7AdapterI18JfrCheckpointFlushE8StackObjE4seekEl.exit: ; preds = %40, %42, %9, %7
  %.0 = phi ptr [ %12, %9 ], [ null, %7 ], [ %.pre, %42 ], [ %.pre, %40 ]
  ret ptr %.0
}